target datalayout = "e-m:e-p270:32:32-p271:32:32-p272:64:64-i64:64-i128:128-f80:128-n8:16:32:64-S128"
target triple = "x86_64-pc-linux-gnu"

%struct.IDAMemRec = type { double, ptr, ptr, i32, double, double, ptr, i32, ptr, ptr, i32, ptr, ptr, i32, i32, double, double, ptr, i32, i32, i32, ptr, ptr, i32, ptr, ptr, ptr, i32, double, i32, i32, double, ptr, ptr, i32, ptr, ptr, i32, i32, i32, double, ptr, ptr, [6 x ptr], [6 x double], [6 x double], [6 x double], [6 x double], [6 x double], ptr, ptr, ptr, ptr, ptr, ptr, ptr, ptr, ptr, ptr, ptr, ptr, ptr, ptr, ptr, [6 x ptr], ptr, ptr, ptr, ptr, [6 x ptr], ptr, ptr, ptr, ptr, ptr, ptr, ptr, ptr, ptr, ptr, ptr, ptr, ptr, ptr, [6 x ptr], ptr, ptr, ptr, ptr, ptr, double, ptr, ptr, i32, i32, i32, i32, i32, i32, i32, double, double, double, i32, double, i32, i32, i32, i32, double, double, double, double, double, double, double, double, double, double, double, double, double, double, i32, i32, i32, i32, i32, i64, double, i32, i64, i64, i64, i64, i64, i64, i64, i64, i64, i64, i64, i64, i64, i64, i64, i64, i64, i64, i64, i64, i64, i64, i64, i64, ptr, ptr, ptr, i32, i32, i32, i32, i32, i32, i32, i32, i32, i32, i32, i32, i32, ptr, ptr, ptr, ptr, ptr, ptr, i32, i32, i32, i32, i32, i32, double, double, double, ptr, i32, ptr, ptr, double, double, double, ptr, ptr, ptr, double, double, i32, i32, i64, ptr, i32, i32, ptr, i32 }

@.str = private unnamed_addr constant [5 x i8] c"IDAS\00", align 1
@.str.4 = private unnamed_addr constant [24 x i8] c"ida_mem = NULL illegal.\00", align 1
@.str.5 = private unnamed_addr constant [19 x i8] c"y0 = NULL illegal.\00", align 1
@.str.6 = private unnamed_addr constant [20 x i8] c"yp0 = NULL illegal.\00", align 1
@.str.9 = private unnamed_addr constant [10 x i8] c"IDAReInit\00", align 1
@.str.10 = private unnamed_addr constant [34 x i8] c"Attempt to call before IDAMalloc.\00", align 1

; Function Attrs: nounwind uwtable
define i32 @IDAReInit(ptr noundef %0, double noundef %1, ptr noundef %2, ptr noundef %3) #0 {
  %5 = alloca i32, align 4
  %6 = alloca ptr, align 8
  %7 = alloca double, align 8
  %8 = alloca ptr, align 8
  %9 = alloca ptr, align 8
  %10 = alloca ptr, align 8
  %11 = alloca i32, align 4
  store ptr %0, ptr %6, align 8, !tbaa !91
  store double %1, ptr %7, align 8, !tbaa !92
  store ptr %2, ptr %8, align 8, !tbaa !93
  store ptr %3, ptr %9, align 8, !tbaa !93
  call void @llvm.lifetime.start.p0(i64 8, ptr %10) #8
  %12 = load ptr, ptr %6, align 8, !tbaa !91
  %13 = icmp eq ptr %12, null
  br i1 %13, label %14, label %15

14:                                               ; preds = %4
  call void (ptr, i32, ptr, ptr, ptr, ...) @IDAProcessError(ptr noundef null, i32 noundef -20, ptr noundef @.str, ptr noundef @.str.9, ptr noundef @.str.4)
  store i32 -20, ptr %5, align 4
  store i32 1, ptr %11, align 4
  br label %73

15:                                               ; preds = %4
  %16 = load ptr, ptr %6, align 8, !tbaa !91
  store ptr %16, ptr %10, align 8, !tbaa !3
  %17 = load ptr, ptr %10, align 8, !tbaa !3
  %18 = getelementptr inbounds nuw %struct.IDAMemRec, ptr %17, i32 0, i32 162
  %19 = load i32, ptr %18, align 8, !tbaa !78
  %20 = icmp eq i32 %19, 0
  br i1 %20, label %21, label %23

21:                                               ; preds = %15
  %22 = load ptr, ptr %10, align 8, !tbaa !3
  call void (ptr, i32, ptr, ptr, ptr, ...) @IDAProcessError(ptr noundef %22, i32 noundef -23, ptr noundef @.str, ptr noundef @.str.9, ptr noundef @.str.10)
  store i32 -23, ptr %5, align 4
  store i32 1, ptr %11, align 4
  br label %73

23:                                               ; preds = %15
  %24 = load ptr, ptr %8, align 8, !tbaa !93
  %25 = icmp eq ptr %24, null
  br i1 %25, label %26, label %28

26:                                               ; preds = %23
  %27 = load ptr, ptr %10, align 8, !tbaa !3
  call void (ptr, i32, ptr, ptr, ptr, ...) @IDAProcessError(ptr noundef %27, i32 noundef -22, ptr noundef @.str, ptr noundef @.str.9, ptr noundef @.str.5)
  store i32 -22, ptr %5, align 4
  store i32 1, ptr %11, align 4
  br label %73

28:                                               ; preds = %23
  %29 = load ptr, ptr %9, align 8, !tbaa !93
  %30 = icmp eq ptr %29, null
  br i1 %30, label %31, label %33

31:                                               ; preds = %28
  %32 = load ptr, ptr %10, align 8, !tbaa !3
  call void (ptr, i32, ptr, ptr, ptr, ...) @IDAProcessError(ptr noundef %32, i32 noundef -22, ptr noundef @.str, ptr noundef @.str.9, ptr noundef @.str.6)
  store i32 -22, ptr %5, align 4
  store i32 1, ptr %11, align 4
  br label %73

33:                                               ; preds = %28
  %34 = load double, ptr %7, align 8, !tbaa !92
  %35 = load ptr, ptr %10, align 8, !tbaa !3
  %36 = getelementptr inbounds nuw %struct.IDAMemRec, ptr %35, i32 0, i32 112
  store double %34, ptr %36, align 8, !tbaa !106
  %37 = load ptr, ptr %10, align 8, !tbaa !3
  %38 = getelementptr inbounds nuw %struct.IDAMemRec, ptr %37, i32 0, i32 177
  store i32 0, ptr %38, align 8, !tbaa !113
  %39 = load ptr, ptr %8, align 8, !tbaa !93
  %40 = load ptr, ptr %10, align 8, !tbaa !3
  %41 = getelementptr inbounds nuw %struct.IDAMemRec, ptr %40, i32 0, i32 43
  %42 = getelementptr inbounds [6 x ptr], ptr %41, i64 0, i64 0
  %43 = load ptr, ptr %42, align 8, !tbaa !93
  call void @N_VScale(double noundef 1.000000e+00, ptr noundef %39, ptr noundef %43)
  %44 = load ptr, ptr %9, align 8, !tbaa !93
  %45 = load ptr, ptr %10, align 8, !tbaa !3
  %46 = getelementptr inbounds nuw %struct.IDAMemRec, ptr %45, i32 0, i32 43
  %47 = getelementptr inbounds [6 x ptr], ptr %46, i64 0, i64 1
  %48 = load ptr, ptr %47, align 8, !tbaa !93
  call void @N_VScale(double noundef 1.000000e+00, ptr noundef %44, ptr noundef %48)
  %49 = load ptr, ptr %10, align 8, !tbaa !3
  %50 = getelementptr inbounds nuw %struct.IDAMemRec, ptr %49, i32 0, i32 131
  store i64 0, ptr %50, align 8, !tbaa !114
  %51 = load ptr, ptr %10, align 8, !tbaa !3
  %52 = getelementptr inbounds nuw %struct.IDAMemRec, ptr %51, i32 0, i32 132
  store i64 0, ptr %52, align 8, !tbaa !115
  %53 = load ptr, ptr %10, align 8, !tbaa !3
  %54 = getelementptr inbounds nuw %struct.IDAMemRec, ptr %53, i32 0, i32 138
  store i64 0, ptr %54, align 8, !tbaa !116
  %55 = load ptr, ptr %10, align 8, !tbaa !3
  %56 = getelementptr inbounds nuw %struct.IDAMemRec, ptr %55, i32 0, i32 141
  store i64 0, ptr %56, align 8, !tbaa !117
  %57 = load ptr, ptr %10, align 8, !tbaa !3
  %58 = getelementptr inbounds nuw %struct.IDAMemRec, ptr %57, i32 0, i32 145
  store i64 0, ptr %58, align 8, !tbaa !118
  %59 = load ptr, ptr %10, align 8, !tbaa !3
  %60 = getelementptr inbounds nuw %struct.IDAMemRec, ptr %59, i32 0, i32 147
  store i64 0, ptr %60, align 8, !tbaa !119
  %61 = load ptr, ptr %10, align 8, !tbaa !3
  %62 = getelementptr inbounds nuw %struct.IDAMemRec, ptr %61, i32 0, i32 182
  store i32 0, ptr %62, align 4, !tbaa !120
  %63 = load ptr, ptr %10, align 8, !tbaa !3
  %64 = getelementptr inbounds nuw %struct.IDAMemRec, ptr %63, i32 0, i32 184
  store double 0.000000e+00, ptr %64, align 8, !tbaa !121
  %65 = load ptr, ptr %10, align 8, !tbaa !3
  %66 = getelementptr inbounds nuw %struct.IDAMemRec, ptr %65, i32 0, i32 185
  store double 1.000000e+00, ptr %66, align 8, !tbaa !122
  %67 = load ptr, ptr %10, align 8, !tbaa !3
  %68 = getelementptr inbounds nuw %struct.IDAMemRec, ptr %67, i32 0, i32 200
  store i64 0, ptr %68, align 8, !tbaa !123
  %69 = load ptr, ptr %10, align 8, !tbaa !3
  %70 = getelementptr inbounds nuw %struct.IDAMemRec, ptr %69, i32 0, i32 199
  store i32 0, ptr %70, align 4, !tbaa !124
  %71 = load ptr, ptr %10, align 8, !tbaa !3
  %72 = getelementptr inbounds nuw %struct.IDAMemRec, ptr %71, i32 0, i32 158
  store i32 0, ptr %72, align 8, !tbaa !135
  store i32 0, ptr %5, align 4
  store i32 1, ptr %11, align 4
  br label %73

73:                                               ; preds = %33, %31, %26, %21, %14
  call void @llvm.lifetime.end.p0(i64 8, ptr %10) #8
  %74 = load i32, ptr %5, align 4
  ret i32 %74
}