; Function Attrs: nounwind uwtable
define range(i32 -23, 1) i32 @IDAReInit(ptr noundef captures(address_is_null) %0, double noundef %1, ptr noundef %2, ptr noundef %3) local_unnamed_addr #0 {
  %5 = icmp eq ptr %0, null
  br i1 %5, label %6, label %7

6:                                                ; preds = %4
  tail call void (ptr, i32, ptr, ptr, ptr, ...) @IDAProcessError(ptr noundef null, i32 noundef -20, ptr noundef nonnull @.str, ptr noundef nonnull @.str.9, ptr noundef nonnull @.str.4)
  br label %36

7:                                                ; preds = %4
  %8 = getelementptr inbounds nuw i8, ptr %0, i64 1552
  %9 = load i32, ptr %8, align 8, !tbaa !111
  %10 = icmp eq i32 %9, 0
  br i1 %10, label %11, label %12

11:                                               ; preds = %7
  tail call void (ptr, i32, ptr, ptr, ptr, ...) @IDAProcessError(ptr noundef nonnull %0, i32 noundef -23, ptr noundef nonnull @.str, ptr noundef nonnull @.str.9, ptr noundef nonnull @.str.10)
  br label %36

12:                                               ; preds = %7
  %13 = icmp eq ptr %2, null
  br i1 %13, label %14, label %15

14:                                               ; preds = %12
  tail call void (ptr, i32, ptr, ptr, ptr, ...) @IDAProcessError(ptr noundef nonnull %0, i32 noundef -22, ptr noundef nonnull @.str, ptr noundef nonnull @.str.9, ptr noundef nonnull @.str.5)
  br label %36

15:                                               ; preds = %12
  %16 = icmp eq ptr %3, null
  br i1 %16, label %17, label %18

17:                                               ; preds = %15
  tail call void (ptr, i32, ptr, ptr, ptr, ...) @IDAProcessError(ptr noundef nonnull %0, i32 noundef -22, ptr noundef nonnull @.str, ptr noundef nonnull @.str.9, ptr noundef nonnull @.str.6)
  br label %36

18:                                               ; preds = %15
  %19 = getelementptr inbounds nuw i8, ptr %0, i64 1184
  store double %1, ptr %19, align 8, !tbaa !98
  %20 = getelementptr inbounds nuw i8, ptr %0, i64 1640
  store i32 0, ptr %20, align 8, !tbaa !112
  %21 = getelementptr inbounds nuw i8, ptr %0, i64 312
  %22 = load ptr, ptr %21, align 8, !tbaa !57
  tail call void @N_VScale(double noundef 1.000000e+00, ptr noundef nonnull %2, ptr noundef %22) #13
  %23 = getelementptr inbounds nuw i8, ptr %0, i64 320
  %24 = load ptr, ptr %23, align 8, !tbaa !57
  tail call void @N_VScale(double noundef 1.000000e+00, ptr noundef nonnull %3, ptr noundef %24) #13
  %25 = getelementptr inbounds nuw i8, ptr %0, i64 1320
  %26 = getelementptr inbounds nuw i8, ptr %0, i64 1376
  store i64 0, ptr %26, align 8, !tbaa !99
  %27 = getelementptr inbounds nuw i8, ptr %0, i64 1400
  store i64 0, ptr %27, align 8, !tbaa !100
  %28 = getelementptr inbounds nuw i8, ptr %0, i64 1432
  store i64 0, ptr %28, align 8, !tbaa !101
  %29 = getelementptr inbounds nuw i8, ptr %0, i64 1448
  store i64 0, ptr %29, align 8, !tbaa !102
  %30 = getelementptr inbounds nuw i8, ptr %0, i64 1660
  store i32 0, ptr %30, align 4, !tbaa !103
  %31 = getelementptr inbounds nuw i8, ptr %0, i64 1672
  store double 0.000000e+00, ptr %31, align 8, !tbaa !104
  %32 = getelementptr inbounds nuw i8, ptr %0, i64 1680
  tail call void @llvm.memset.p0.i64(ptr noundef nonnull align 8 dereferenceable(16) %25, i8 0, i64 16, i1 false)
  store double 1.000000e+00, ptr %32, align 8, !tbaa !105
  %33 = getelementptr inbounds nuw i8, ptr %0, i64 1792
  store i64 0, ptr %33, align 8, !tbaa !113
  %34 = getelementptr inbounds nuw i8, ptr %0, i64 1788
  store i32 0, ptr %34, align 4, !tbaa !114
  %35 = getelementptr inbounds nuw i8, ptr %0, i64 1536
  store i32 0, ptr %35, align 8, !tbaa !110
  br label %36

36:                                               ; preds = %18, %17, %14, %11, %6
  %.0 = phi i32 [ -20, %6 ], [ -23, %11 ], [ -22, %14 ], [ -22, %17 ], [ 0, %18 ]
  ret i32 %.0
}